; ModuleID = '26/343.c'
source_filename = "26/343.c"
target datalayout = "e-m:e-p270:32:32-p271:32:32-p272:64:64-i64:64-f80:128-n8:16:32:64-S128"
target triple = "x86_64-pc-linux-gnu"

@.str = private unnamed_addr constant [3 x i8] c"%c\00", align 1

; Function Attrs: noinline nounwind uwtable
define dso_local void @main() #0 {
  %1 = alloca i8*, align 8
  %2 = alloca i8*, align 8
  %3 = alloca i8*, align 8
  %4 = call noalias i8* @malloc(i64 1000) #3
  store i8* %4, i8** %1, align 8
  %5 = load i8*, i8** %1, align 8
  store i8* %5, i8** %2, align 8
  %6 = load i8*, i8** %1, align 8
  %7 = call i32 (i8*, ...) bitcast (i32 (...)* @gets to i32 (i8*, ...)*)(i8* %6)
  %8 = load i8*, i8** %2, align 8
  store i8* %8, i8** %1, align 8
  br label %9

9:                                                ; preds = %44, %0
  %10 = load i8*, i8** %1, align 8
  %11 = load i8, i8* %10, align 1
  %12 = sext i8 %11 to i32
  %13 = icmp ne i32 %12, 0
  br i1 %13, label %14, label %47

14:                                               ; preds = %9
  %15 = load i8*, i8** %1, align 8
  %16 = load i8, i8* %15, align 1
  %17 = sext i8 %16 to i32
  %18 = icmp eq i32 %17, 32
  br i1 %18, label %19, label %43

19:                                               ; preds = %14
  %20 = load i8*, i8** %1, align 8
  %21 = getelementptr inbounds i8, i8* %20, i64 1
  store i8* %21, i8** %3, align 8
  %22 = load i8, i8* %21, align 1
  %23 = sext i8 %22 to i32
  %24 = icmp eq i32 %23, 32
  br i1 %24, label %25, label %42

25:                                               ; preds = %19
  br label %26

26:                                               ; preds = %36, %25
  %27 = load i8*, i8** %3, align 8
  %28 = load i8, i8* %27, align 1
  %29 = sext i8 %28 to i32
  %30 = icmp ne i32 %29, 0
  br i1 %30, label %31, label %39

31:                                               ; preds = %26
  %32 = load i8*, i8** %3, align 8
  %33 = getelementptr inbounds i8, i8* %32, i64 1
  %34 = load i8, i8* %33, align 1
  %35 = load i8*, i8** %3, align 8
  store i8 %34, i8* %35, align 1
  br label %36

36:                                               ; preds = %31
  %37 = load i8*, i8** %3, align 8
  %38 = getelementptr inbounds i8, i8* %37, i32 1
  store i8* %38, i8** %3, align 8
  br label %26

39:                                               ; preds = %26
  %40 = load i8*, i8** %1, align 8
  %41 = getelementptr inbounds i8, i8* %40, i32 -1
  store i8* %41, i8** %1, align 8
  br label %42

42:                                               ; preds = %39, %19
  br label %43

43:                                               ; preds = %42, %14
  br label %44

44:                                               ; preds = %43
  %45 = load i8*, i8** %1, align 8
  %46 = getelementptr inbounds i8, i8* %45, i32 1
  store i8* %46, i8** %1, align 8
  br label %9

47:                                               ; preds = %9
  %48 = load i8*, i8** %2, align 8
  store i8* %48, i8** %1, align 8
  br label %49

49:                                               ; preds = %59, %47
  %50 = load i8*, i8** %1, align 8
  %51 = load i8, i8* %50, align 1
  %52 = sext i8 %51 to i32
  %53 = icmp ne i32 %52, 0
  br i1 %53, label %54, label %62

54:                                               ; preds = %49
  %55 = load i8*, i8** %1, align 8
  %56 = load i8, i8* %55, align 1
  %57 = sext i8 %56 to i32
  %58 = call i32 (i8*, ...) @printf(i8* getelementptr inbounds ([3 x i8], [3 x i8]* @.str, i64 0, i64 0), i32 %57)
  br label %59

59:                                               ; preds = %54
  %60 = load i8*, i8** %1, align 8
  %61 = getelementptr inbounds i8, i8* %60, i32 1
  store i8* %61, i8** %1, align 8
  br label %49

62:                                               ; preds = %49
  ret void
}

; Function Attrs: nounwind
declare dso_local noalias i8* @malloc(i64) #1

declare dso_local i32 @gets(...) #2

declare dso_local i32 @printf(i8*, ...) #2


!llvm.module.flags = !{!0}
!llvm.ident = !{!1}

!0 = !{i32 1, !"wchar_size", i32 4}
!1 = !{!"clang version 10.0.0-4ubuntu1 "}
